Certificate:
    Data:
        Version: 3 (0x2)
        Serial Number: 1 (0x1)
    Signature Algorithm: sha256WithRSAEncryption
        Issuer: CN=example
        Validity
            Not Before: Feb  8 07:51:19 2016 GMT
            Not After : Feb  5 07:51:19 2026 GMT
        Subject: CN=client-001
        Subject Public Key Info:
            Public Key Algorithm: rsaEncryption
                Public-Key: (2048 bit)
                Modulus:
                    00:b9:98:1b:db:2b:33:bb:52:77:d6:a4:b5:37:67:
                    54:cb:d4:5f:2a:5f:f3:4f:a2:d2:f2:66:a7:5e:55:
                    f7:68:2a:0d:89:ec:f1:62:07:39:a7:bd:e6:8a:c1:
                    0c:c6:fe:e0:ee:67:98:c7:d9:54:a5:ca:13:9b:a2:
                    84:95:db:77:5e:c1:3b:19:9a:28:34:49:74:42:b6:
                    ce:f8:30:86:58:47:33:2e:1e:39:21:eb:e6:ad:8f:
                    6a:18:48:60:bf:20:ba:7f:8c:18:19:9a:af:3c:25:
                    c3:40:ea:d9:18:99:47:4c:3a:31:cd:84:72:e4:c5:
                    62:6c:59:99:85:63:2f:ee:ff:10:36:c5:82:51:9f:
                    9a:0f:32:45:d1:b0:b8:a8:14:3a:52:f7:c0:d5:78:
                    5c:c1:f3:40:10:1b:46:4d:50:a5:dc:c7:04:19:12:
                    c6:9e:cd:4b:8b:dd:ec:bb:16:46:24:8c:3d:83:53:
                    91:03:e1:36:3f:fc:99:1a:5e:46:7a:94:db:08:e4:
                    9c:d8:cf:d2:5e:d6:db:31:85:26:a1:83:4a:e9:d6:
                    e8:af:04:1d:b8:a4:7a:7a:ad:33:43:f2:55:84:d4:
                    87:a0:df:c1:90:ec:fc:3f:88:be:5f:8b:d9:03:30:
                    f3:f2:9c:a6:b6:bb:98:ed:ca:82:76:8b:df:a1:4c:
                    75:7f
                Exponent: 65537 (0x10001)
        X509v3 extensions:
            X509v3 Basic Constraints: 
                CA:FALSE
            X509v3 Subject Key Identifier: 
                16:69:65:E1:AA:53:E7:A1:0C:07:1B:BB:28:B1:A5:A0:BB:0A:48:FD
            X509v3 Authority Key Identifier: 
                keyid:A2:FD:D3:3A:35:27:1F:4A:B1:64:C2:21:6C:75:E9:9E:76:7C:76:36
                DirName:/CN=example
                serial:B6:52:A7:94:C7:E7:2B:09

            X509v3 Extended Key Usage: 
                TLS Web Client Authentication
            X509v3 Key Usage: 
                Digital Signature
    Signature Algorithm: sha256WithRSAEncryption
         61:14:29:62:e1:12:82:b0:92:e8:08:7e:cc:13:f3:78:6a:02:
         8e:0d:95:f0:00:dc:3c:9a:48:47:25:81:01:40:fc:8e:e2:11:
         11:7c:95:83:6f:bc:bf:24:84:40:80:52:81:60:d6:4b:ee:ce:
         d5:eb:47:05:6c:59:a6:69:56:59:1b:21:98:e4:ef:c6:44:d1:
         75:c2:ad:15:b7:96:5c:52:70:27:61:b2:1d:66:8a:4d:21:b5:
         c3:ef:a7:68:67:a3:f8:7b:e9:31:41:0e:19:ab:bc:92:e2:29:
         2d:b6:f8:3d:3e:e8:2d:96:bb:d4:6e:d4:e7:49:64:7d:1b:84:
         47:40:e1:67:83:a9:25:77:3d:ed:7b:df:4a:e6:41:65:71:1c:
         fb:a7:50:82:fd:88:a0:a9:11:39:f4:88:92:9c:45:8a:e4:fc:
         fa:28:29:c6:89:b3:38:07:8d:da:0c:11:57:be:32:97:4a:ba:
         6e:30:e6:3c:51:97:d2:ed:4f:04:db:3f:6f:80:78:1b:3f:71:
         b4:7e:c5:57:a3:46:50:4f:dd:6d:8d:a8:81:60:17:89:a4:f5:
         a0:4b:81:5d:14:d5:3d:09:42:ad:b7:c7:5d:fd:9f:8f:b1:6d:
         ef:52:75:48:dd:58:fa:b0:02:70:fb:0f:fe:77:4d:ae:0a:15:
         ad:dc:14:83
-----BEGIN CERTIFICATE-----
MIIDNjCCAh6gAwIBAgIBATANBgkqhkiG9w0BAQsFADASMRAwDgYDVQQDEwdleGFt
cGxlMB4XDTE2MDIwODA3NTExOVoXDTI2MDIwNTA3NTExOVowFTETMBEGA1UEAxMK
Y2xpZW50LTAwMTCCASIwDQYJKoZIhvcNAQEBBQADggEPADCCAQoCggEBALmYG9sr
M7tSd9aktTdnVMvUXypf80+i0vJmp15V92gqDYns8WIHOae95orBDMb+4O5nmMfZ
VKXKE5uihJXbd17BOxmaKDRJdEK2zvgwhlhHMy4eOSHr5q2PahhIYL8gun+MGBma
rzwlw0Dq2RiZR0w6Mc2EcuTFYmxZmYVjL+7/EDbFglGfmg8yRdGwuKgUOlL3wNV4
XMHzQBAbRk1QpdzHBBkSxp7NS4vd7LsWRiSMPYNTkQPhNj/8mRpeRnqU2wjknNjP
0l7W2zGFJqGDSunW6K8EHbikenqtM0PyVYTUh6DfwZDs/D+Ivl+L2QMw8/Kcpra7
mO3KgnaL36FMdX8CAwEAAaOBkzCBkDAJBgNVHRMEAjAAMB0GA1UdDgQWBBQWaWXh
qlPnoQwHG7sosaWguwpI/TBCBgNVHSMEOzA5gBSi/dM6NScfSrFkwiFsdemednx2
NqEWpBQwEjEQMA4GA1UEAxMHZXhhbXBsZYIJALZSp5TH5ysJMBMGA1UdJQQMMAoG
CCsGAQUFBwMCMAsGA1UdDwQEAwIHgDANBgkqhkiG9w0BAQsFAAOCAQEAYRQpYuES
grCS6Ah+zBPzeGoCjg2V8ADcPJpIRyWBAUD8juIREXyVg2+8vySEQIBSgWDWS+7O
1etHBWxZpmlWWRshmOTvxkTRdcKtFbeWXFJwJ2GyHWaKTSG1w++naGej+HvpMUEO
Gau8kuIpLbb4PT7oLZa71G7U50lkfRuER0DhZ4OpJXc97XvfSuZBZXEc+6dQgv2I
oKkROfSIkpxFiuT8+igpxomzOAeN2gwRV74yl0q6bjDmPFGX0u1PBNs/b4B4Gz9x
tH7FV6NGUE/dbY2ogWAXiaT1oEuBXRTVPQlCrbfHXf2fj7Ft71J1SN1Y+rACcPsP
/ndNrgoVrdwUgw==
-----END CERTIFICATE-----
