Certificate:
    Data:
        Version: 3 (0x2)
        Serial Number: 16 (0x10)
    Signature Algorithm: sha256WithRSAEncryption
        Issuer: CN=myCaCool
        Validity
            Not Before: Dec 17 09:06:37 2015 GMT
            Not After : Dec 14 09:06:37 2025 GMT
        Subject: CN=Server-01
        Subject Public Key Info:
            Public Key Algorithm: rsaEncryption
                Public-Key: (2048 bit)
                Modulus:
                    00:ce:42:ad:41:5e:f5:b2:44:19:0d:9c:b9:6b:13:
                    33:14:e2:c0:2f:ec:14:e5:76:ae:55:b9:9e:41:ae:
                    d8:24:e4:64:a8:6d:27:7f:47:bc:35:2c:f7:e5:89:
                    bb:1f:71:a6:b5:14:d9:8a:c9:3a:7e:6d:44:48:d4:
                    29:99:f1:77:72:bb:48:db:b0:a8:66:f4:11:2e:ee:
                    a2:20:18:8f:86:f9:7c:c8:0e:09:99:8f:aa:54:0a:
                    3a:fe:c8:70:55:44:0a:44:4b:80:e2:ea:91:78:46:
                    eb:8b:4d:e2:b5:44:29:61:ec:c3:32:38:07:40:a2:
                    e2:bf:33:e3:81:77:3f:8a:9d:bc:de:a9:57:7d:f1:
                    91:46:44:b8:ee:14:22:67:7b:4e:fd:4c:1f:e5:3c:
                    ce:5b:ca:23:f2:64:d7:a1:e9:95:7f:80:65:1d:f7:
                    05:fb:e5:54:b4:7f:74:2e:46:eb:8b:ac:b3:32:8f:
                    5e:e2:bb:c2:f5:93:a3:fb:07:71:40:18:3a:81:0c:
                    81:38:fa:8a:04:c2:3e:b9:a9:91:8d:7d:51:8f:78:
                    64:da:a8:7a:00:91:52:a6:c5:ac:17:59:d9:c1:57:
                    6d:d5:be:9a:5c:21:ef:8d:7e:8d:71:cd:a9:36:30:
                    50:e9:30:fc:ae:b8:72:38:93:e4:ac:9b:53:b7:ba:
                    34:3d
                Exponent: 65537 (0x10001)
        X509v3 extensions:
            X509v3 Basic Constraints: 
                CA:FALSE
            X509v3 Subject Key Identifier: 
                CB:6A:7B:DF:55:A2:C1:88:8F:5E:01:EB:F1:C2:A5:F1:7D:B6:5C:16
            X509v3 Authority Key Identifier: 
                keyid:BE:B1:0F:E0:59:C4:ED:A2:8D:9A:A0:42:AF:BF:E6:94:1B:D1:CE:94
                DirName:/CN=myCaCool
                serial:9D:F2:CA:9D:7C:77:BA:31

            X509v3 Extended Key Usage: 
                TLS Web Server Authentication
            X509v3 Key Usage: 
                Digital Signature, Key Encipherment
    Signature Algorithm: sha256WithRSAEncryption
         0f:42:33:c1:7c:25:f0:e7:03:37:f5:1c:dc:de:ed:cc:17:85:
         6d:20:e7:23:d8:5e:3b:2d:8a:4f:13:6c:e9:20:64:06:5e:1e:
         45:ba:4d:8f:9f:cf:8b:6e:b6:b5:66:ac:d9:5e:ec:23:16:f0:
         34:5c:d2:67:df:ba:3a:ec:10:ae:72:ab:4b:3c:b6:20:c4:7a:
         53:dd:38:7d:b2:84:57:3b:57:03:b6:7a:07:05:7a:06:f1:27:
         cf:19:ac:eb:f8:15:9b:fe:c4:b9:a8:00:11:63:72:33:64:61:
         9b:c3:bf:e9:59:46:33:eb:69:37:9b:88:09:84:08:75:6d:a4:
         60:11:3c:e9:b6:42:b0:89:23:37:72:e8:b5:b0:ed:db:61:83:
         16:5e:f5:e8:e9:cf:83:47:38:ea:9e:73:2f:1c:7e:07:1a:83:
         ac:0d:b8:e4:42:7e:82:f5:43:46:e0:00:2b:a9:47:ef:69:c0:
         82:2f:c7:40:f2:66:33:49:c2:f2:c4:6c:c6:3c:67:63:47:4c:
         8a:41:0c:95:18:e3:95:df:ac:ff:59:69:23:94:96:e4:01:25:
         32:f3:6d:05:07:8f:83:42:67:1f:5c:8e:d7:4d:ee:ea:6f:07:
         83:a0:8d:8b:12:bd:1e:59:24:38:87:81:2f:fe:38:03:ee:87:
         d5:3e:be:fd
-----BEGIN CERTIFICATE-----
MIIDNzCCAh+gAwIBAgIBEDANBgkqhkiG9w0BAQsFADATMREwDwYDVQQDEwhteUNh
Q29vbDAeFw0xNTEyMTcwOTA2MzdaFw0yNTEyMTQwOTA2MzdaMBQxEjAQBgNVBAMT
CVNlcnZlci0wMTCCASIwDQYJKoZIhvcNAQEBBQADggEPADCCAQoCggEBAM5CrUFe
9bJEGQ2cuWsTMxTiwC/sFOV2rlW5nkGu2CTkZKhtJ39HvDUs9+WJux9xprUU2YrJ
On5tREjUKZnxd3K7SNuwqGb0ES7uoiAYj4b5fMgOCZmPqlQKOv7IcFVECkRLgOLq
kXhG64tN4rVEKWHswzI4B0Ci4r8z44F3P4qdvN6pV33xkUZEuO4UImd7Tv1MH+U8
zlvKI/Jk16HplX+AZR33BfvlVLR/dC5G64usszKPXuK7wvWTo/sHcUAYOoEMgTj6
igTCPrmpkY19UY94ZNqoegCRUqbFrBdZ2cFXbdW+mlwh741+jXHNqTYwUOkw/K64
cjiT5KybU7e6ND0CAwEAAaOBlDCBkTAJBgNVHRMEAjAAMB0GA1UdDgQWBBTLanvf
VaLBiI9eAevxwqXxfbZcFjBDBgNVHSMEPDA6gBS+sQ/gWcTtoo2aoEKvv+aUG9HO
lKEXpBUwEzERMA8GA1UEAxMIbXlDYUNvb2yCCQCd8sqdfHe6MTATBgNVHSUEDDAK
BggrBgEFBQcDATALBgNVHQ8EBAMCBaAwDQYJKoZIhvcNAQELBQADggEBAA9CM8F8
JfDnAzf1HNze7cwXhW0g5yPYXjstik8TbOkgZAZeHkW6TY+fz4tutrVmrNle7CMW
8DRc0mffujrsEK5yq0s8tiDEelPdOH2yhFc7VwO2egcFegbxJ88ZrOv4FZv+xLmo
ABFjcjNkYZvDv+lZRjPraTebiAmECHVtpGARPOm2QrCJIzdy6LWw7dthgxZe9ejp
z4NHOOqecy8cfgcag6wNuORCfoL1Q0bgACupR+9pwIIvx0DyZjNJwvLEbMY8Z2NH
TIpBDJUY45XfrP9ZaSOUluQBJTLzbQUHj4NCZx9cjtdN7upvB4OgjYsSvR5ZJDiH
gS/+OAPuh9U+vv0=
-----END CERTIFICATE-----
